; Function Attrs: mustprogress nofree nounwind uwtable
define void @_ZN17double_conversion6Bignum6SquareEv(ptr noundef nonnull align 4 captures(none) dereferenceable(516) %0) local_unnamed_addr #5 align 2 {
  %2 = load i16, ptr %0, align 4, !tbaa !3
  %3 = sext i16 %2 to i32
  %4 = shl nsw i32 %3, 1
  %5 = icmp sgt i16 %2, 64
  br i1 %5, label %9, label %_ZN17double_conversion6Bignum14EnsureCapacityEi.exit.preheader

_ZN17double_conversion6Bignum14EnsureCapacityEi.exit.preheader: ; preds = %1
  %6 = icmp sgt i16 %2, 0
  br i1 %6, label %.lr.ph, label %.preheader

.lr.ph:                                           ; preds = %_ZN17double_conversion6Bignum14EnsureCapacityEi.exit.preheader
  %7 = getelementptr inbounds nuw i8, ptr %0, i64 4
  %8 = zext nneg i32 %3 to i64
  br label %_ZN17double_conversion6Bignum14EnsureCapacityEi.exit

9:                                                ; preds = %1
  tail call void @abort() #12
  unreachable

.preheader51.lr.ph:                               ; preds = %_ZN17double_conversion6Bignum14EnsureCapacityEi.exit
  %10 = getelementptr inbounds nuw i8, ptr %0, i64 4
  %11 = zext nneg i32 %3 to i64
  br label %.lr.ph57.preheader

_ZN17double_conversion6Bignum14EnsureCapacityEi.exit: ; preds = %.lr.ph, %_ZN17double_conversion6Bignum14EnsureCapacityEi.exit
  %indvars.iv = phi i64 [ 0, %.lr.ph ], [ %indvars.iv.next, %_ZN17double_conversion6Bignum14EnsureCapacityEi.exit ]
  %12 = getelementptr inbounds nuw [128 x i32], ptr %7, i64 0, i64 %indvars.iv
  %13 = load i32, ptr %12, align 4, !tbaa !9
  %14 = add nuw nsw i64 %indvars.iv, %8
  %15 = getelementptr inbounds nuw [128 x i32], ptr %7, i64 0, i64 %14
  store i32 %13, ptr %15, align 4, !tbaa !9
  %indvars.iv.next = add nuw nsw i64 %indvars.iv, 1
  %exitcond.not = icmp eq i64 %indvars.iv.next, %8
  br i1 %exitcond.not, label %.preheader51.lr.ph, label %_ZN17double_conversion6Bignum14EnsureCapacityEi.exit, !llvm.loop !31

.lr.ph57.preheader:                               ; preds = %._crit_edge, %.preheader51.lr.ph
  %indvars.iv88 = phi i64 [ 1, %.preheader51.lr.ph ], [ %indvars.iv.next89, %._crit_edge ]
  %indvars.iv75 = phi i64 [ 0, %.preheader51.lr.ph ], [ %indvars.iv.next76, %._crit_edge ]
  %.059 = phi i64 [ 0, %.preheader51.lr.ph ], [ %34, %._crit_edge ]
  br label %.lr.ph57

.preheader:                                       ; preds = %._crit_edge, %_ZN17double_conversion6Bignum14EnsureCapacityEi.exit.preheader
  %.0.lcssa = phi i64 [ 0, %_ZN17double_conversion6Bignum14EnsureCapacityEi.exit.preheader ], [ %34, %._crit_edge ]
  %16 = icmp sgt i32 %4, %3
  br i1 %16, label %.lr.ph70, label %._crit_edge71

.lr.ph70:                                         ; preds = %.preheader
  %17 = add nsw i32 %3, -1
  %18 = getelementptr inbounds nuw i8, ptr %0, i64 4
  %19 = sext i16 %2 to i64
  %20 = sext i32 %17 to i64
  %wide.trip.count109 = sext i32 %4 to i64
  %invariant.op113 = add nsw i64 %20, %19
  %wide.trip.count104 = zext i32 %3 to i64
  %invariant.op = add nsw i64 %19, -1
  br label %53

.lr.ph57:                                         ; preds = %.lr.ph57.preheader, %.lr.ph57
  %indvars.iv79 = phi i64 [ 0, %.lr.ph57.preheader ], [ %indvars.iv.next80, %.lr.ph57 ]
  %indvars.iv77 = phi i64 [ %indvars.iv75, %.lr.ph57.preheader ], [ %indvars.iv.next78, %.lr.ph57 ]
  %.156 = phi i64 [ %.059, %.lr.ph57.preheader ], [ %30, %.lr.ph57 ]
  %21 = add nuw nsw i64 %indvars.iv77, %11
  %22 = getelementptr inbounds nuw [128 x i32], ptr %10, i64 0, i64 %21
  %23 = load i32, ptr %22, align 4, !tbaa !9
  %24 = add nuw nsw i64 %indvars.iv79, %11
  %25 = getelementptr inbounds nuw [128 x i32], ptr %10, i64 0, i64 %24
  %26 = load i32, ptr %25, align 4, !tbaa !9
  %27 = zext i32 %23 to i64
  %28 = zext i32 %26 to i64
  %29 = mul nuw i64 %28, %27
  %30 = add i64 %29, %.156
  %indvars.iv.next78 = add nsw i64 %indvars.iv77, -1
  %indvars.iv.next80 = add nuw nsw i64 %indvars.iv79, 1
  %exitcond87.not = icmp eq i64 %indvars.iv.next80, %indvars.iv88
  br i1 %exitcond87.not, label %._crit_edge, label %.lr.ph57, !llvm.loop !32

._crit_edge:                                      ; preds = %.lr.ph57
  %31 = trunc i64 %30 to i32
  %32 = and i32 %31, 268435455
  %33 = getelementptr inbounds nuw [128 x i32], ptr %10, i64 0, i64 %indvars.iv75
  store i32 %32, ptr %33, align 4, !tbaa !9
  %34 = lshr i64 %30, 28
  %indvars.iv.next76 = add nuw nsw i64 %indvars.iv75, 1
  %indvars.iv.next89 = add nuw nsw i64 %indvars.iv88, 1
  %exitcond94.not = icmp eq i64 %indvars.iv.next76, %11
  br i1 %exitcond94.not, label %.preheader, label %.lr.ph57.preheader, !llvm.loop !33

._crit_edge71:                                    ; preds = %._crit_edge66, %.preheader
  %35 = trunc i32 %4 to i16
  store i16 %35, ptr %0, align 4, !tbaa !3
  %36 = getelementptr inbounds nuw i8, ptr %0, i64 2
  %37 = load i16, ptr %36, align 2, !tbaa !8
  %38 = shl i16 %37, 1
  store i16 %38, ptr %36, align 2, !tbaa !8
  %39 = icmp sgt i16 %35, 0
  br i1 %39, label %.lr.ph.i, label %.critedge.i

.lr.ph.i:                                         ; preds = %._crit_edge71
  %40 = getelementptr inbounds nuw i8, ptr %0, i64 4
  br label %41

41:                                               ; preds = %49, %.lr.ph.i
  %42 = phi i16 [ %35, %.lr.ph.i ], [ %50, %49 ]
  %43 = zext nneg i16 %42 to i64
  %44 = add nuw nsw i64 %43, 4294967295
  %45 = and i64 %44, 4294967295
  %46 = getelementptr inbounds nuw [128 x i32], ptr %40, i64 0, i64 %45
  %47 = load i32, ptr %46, align 4, !tbaa !9
  %48 = icmp eq i32 %47, 0
  br i1 %48, label %49, label %_ZN17double_conversion6Bignum5ClampEv.exit

49:                                               ; preds = %41
  %50 = add nsw i16 %42, -1
  store i16 %50, ptr %0, align 4, !tbaa !3
  %51 = icmp sgt i16 %42, 1
  br i1 %51, label %41, label %.critedge.thread3.i, !llvm.loop !17

.critedge.i:                                      ; preds = %._crit_edge71
  %52 = icmp eq i16 %35, 0
  br i1 %52, label %.critedge.thread3.i, label %_ZN17double_conversion6Bignum5ClampEv.exit

.critedge.thread3.i:                              ; preds = %49, %.critedge.i
  store i16 0, ptr %36, align 2, !tbaa !8
  br label %_ZN17double_conversion6Bignum5ClampEv.exit

_ZN17double_conversion6Bignum5ClampEv.exit:       ; preds = %41, %.critedge.i, %.critedge.thread3.i
  ret void

53:                                               ; preds = %.lr.ph70, %._crit_edge66
  %indvars.iv106 = phi i64 [ %19, %.lr.ph70 ], [ %indvars.iv.next107, %._crit_edge66 ]
  %indvars.iv95 = phi i64 [ 1, %.lr.ph70 ], [ %indvars.iv.next96, %._crit_edge66 ]
  %.269 = phi i64 [ %.0.lcssa, %.lr.ph70 ], [ %67, %._crit_edge66 ]
  %54 = icmp slt i64 %indvars.iv106, %invariant.op113
  br i1 %54, label %.lr.ph65, label %._crit_edge66

.lr.ph65:                                         ; preds = %53, %.lr.ph65
  %indvars.iv99.in = phi i64 [ %indvars.iv99, %.lr.ph65 ], [ %19, %53 ]
  %indvars.iv97 = phi i64 [ %indvars.iv.next98, %.lr.ph65 ], [ %indvars.iv95, %53 ]
  %.363 = phi i64 [ %63, %.lr.ph65 ], [ %.269, %53 ]
  %indvars.iv99 = add nsw i64 %indvars.iv99.in, -1
  %.reass = add i64 %indvars.iv99.in, %invariant.op
  %55 = getelementptr inbounds [128 x i32], ptr %18, i64 0, i64 %.reass
  %56 = load i32, ptr %55, align 4, !tbaa !9
  %57 = add nsw i64 %indvars.iv97, %19
  %58 = getelementptr inbounds [128 x i32], ptr %18, i64 0, i64 %57
  %59 = load i32, ptr %58, align 4, !tbaa !9
  %60 = zext i32 %56 to i64
  %61 = zext i32 %59 to i64
  %62 = mul nuw i64 %61, %60
  %63 = add i64 %62, %.363
  %indvars.iv.next98 = add nuw nsw i64 %indvars.iv97, 1
  %exitcond105.not = icmp eq i64 %indvars.iv.next98, %wide.trip.count104
  br i1 %exitcond105.not, label %._crit_edge66, label %.lr.ph65, !llvm.loop !34

._crit_edge66:                                    ; preds = %.lr.ph65, %53
  %.3.lcssa = phi i64 [ %.269, %53 ], [ %63, %.lr.ph65 ]
  %64 = trunc i64 %.3.lcssa to i32
  %65 = and i32 %64, 268435455
  %66 = getelementptr inbounds [128 x i32], ptr %18, i64 0, i64 %indvars.iv106
  store i32 %65, ptr %66, align 4, !tbaa !9
  %67 = lshr i64 %.3.lcssa, 28
  %indvars.iv.next107 = add nsw i64 %indvars.iv106, 1
  %indvars.iv.next96 = add nuw nsw i64 %indvars.iv95, 1
  %exitcond110.not = icmp eq i64 %indvars.iv.next107, %wide.trip.count109
  br i1 %exitcond110.not, label %._crit_edge71, label %53, !llvm.loop !35
}